target datalayout = "e-m:e-p270:32:32-p271:32:32-p272:64:64-i64:64-i128:128-f80:128-n8:16:32:64-S128"
target triple = "x86_64-pc-linux-gnu"

; Function Attrs: nounwind uwtable
define i32 @phpdbg_is_empty(ptr noundef %0) #0 {
  %2 = alloca i32, align 4
  %3 = alloca ptr, align 8
  store ptr %0, ptr %3, align 8
  %4 = load ptr, ptr %3, align 8
  %5 = icmp ne ptr %4, null
  br i1 %5, label %7, label %6

6:                                                ; preds = %1
  store i32 1, ptr %2, align 4
  br label %30

7:                                                ; preds = %1
  br label %8

8:                                                ; preds = %26, %7
  %9 = load ptr, ptr %3, align 8
  %10 = load i8, ptr %9, align 1
  %11 = icmp ne i8 %10, 0
  br i1 %11, label %12, label %29

12:                                               ; preds = %8
  %13 = call ptr @__ctype_b_loc() #11
  %14 = load ptr, ptr %13, align 8
  %15 = load ptr, ptr %3, align 8
  %16 = load i8, ptr %15, align 1
  %17 = sext i8 %16 to i32
  %18 = sext i32 %17 to i64
  %19 = getelementptr inbounds i16, ptr %14, i64 %18
  %20 = load i16, ptr %19, align 2
  %21 = zext i16 %20 to i32
  %22 = and i32 %21, 8192
  %23 = icmp ne i32 %22, 0
  br i1 %23, label %24, label %25

24:                                               ; preds = %12
  br label %26

25:                                               ; preds = %12
  store i32 0, ptr %2, align 4
  br label %30

26:                                               ; preds = %24
  %27 = load ptr, ptr %3, align 8
  %28 = getelementptr inbounds i8, ptr %27, i32 1
  store ptr %28, ptr %3, align 8
  br label %8

29:                                               ; preds = %8
  store i32 1, ptr %2, align 4
  br label %30

30:                                               ; preds = %29, %25, %6
  %31 = load i32, ptr %2, align 4
  ret i32 %31
}