; Function Attrs: nofree nosync nounwind memory(read, inaccessiblemem: none) uwtable
define noundef i32 @phpdbg_is_empty(ptr noundef readonly %0) local_unnamed_addr #0 {
  %.not = icmp eq ptr %0, null
  br i1 %.not, label %.loopexit, label %.preheader

.preheader:                                       ; preds = %1
  %2 = load i8, ptr %0, align 1
  %.not79 = icmp eq i8 %2, 0
  br i1 %.not79, label %.loopexit, label %.lr.ph

.lr.ph:                                           ; preds = %.preheader
  %3 = tail call ptr @__ctype_b_loc() #23
  %4 = load ptr, ptr %3, align 8
  br label %8

5:                                                ; preds = %8
  %6 = getelementptr inbounds i8, ptr %.010, i64 1
  %7 = load i8, ptr %6, align 1
  %.not7 = icmp eq i8 %7, 0
  br i1 %.not7, label %.loopexit, label %8

8:                                                ; preds = %.lr.ph, %5
  %9 = phi i8 [ %2, %.lr.ph ], [ %7, %5 ]
  %.010 = phi ptr [ %0, %.lr.ph ], [ %6, %5 ]
  %10 = sext i8 %9 to i64
  %11 = getelementptr inbounds i16, ptr %4, i64 %10
  %12 = load i16, ptr %11, align 2
  %13 = and i16 %12, 8192
  %.not8 = icmp eq i16 %13, 0
  br i1 %.not8, label %.loopexit, label %5

.loopexit:                                        ; preds = %8, %5, %.preheader, %1
  %.04 = phi i32 [ 1, %1 ], [ 1, %.preheader ], [ 0, %8 ], [ 1, %5 ]
  ret i32 %.04
}